; Function Attrs: mustprogress uwtable
define void @_ZN7rocksdb7blob_db10BlobDBImpl3GetERKNS_11ReadOptionsEPNS_18ColumnFamilyHandleERKNS_5SliceEPNS_13PinnableSliceE(ptr noalias sret(%"class.rocksdb::Status") align 8 %agg.result, ptr noundef nonnull align 8 dereferenceable(2448) %this, ptr noundef nonnull align 8 dereferenceable(154) %_read_options, ptr noundef %column_family, ptr noundef nonnull align 8 dereferenceable(16) %key, ptr noundef %value) unnamed_addr #3 align 2 personality ptr @__gxx_personality_v0 {
entry:
  %ref.tmp = alloca %"class.rocksdb::Slice", align 8
  %ref.tmp4 = alloca %"class.rocksdb::Slice", align 8
  %read_options = alloca %"struct.rocksdb::ReadOptions", align 8
  %io_activity = getelementptr inbounds i8, ptr %_read_options, i64 153
  %0 = load i8, ptr %io_activity, align 1
  switch i8 %0, label %if.then [
    i8 10, label %if.end
    i8 3, label %if.end
  ]

if.then:                                          ; preds = %entry
  store ptr @.str.54, ptr %ref.tmp, align 8
  %size_.i = getelementptr inbounds i8, ptr %ref.tmp, i64 8
  store i64 107, ptr %size_.i, align 8
  store ptr @.str.43, ptr %ref.tmp4, align 8
  %size_.i3 = getelementptr inbounds i8, ptr %ref.tmp4, i64 8
  store i64 0, ptr %size_.i3, align 8
  call void @_ZN7rocksdb6StatusC2ENS0_4CodeENS0_7SubCodeERKNS_5SliceES5_NS0_8SeverityE(ptr noundef nonnull align 8 dereferenceable(16) %agg.result, i8 noundef zeroext 4, i8 noundef zeroext 0, ptr noundef nonnull align 8 dereferenceable(16) %ref.tmp, ptr noundef nonnull align 8 dereferenceable(16) %ref.tmp4, i8 noundef zeroext 0)
  br label %return

if.end:                                           ; preds = %entry, %entry
  call void @llvm.memcpy.p0.p0.i64(ptr noundef nonnull align 8 dereferenceable(120) %read_options, ptr noundef nonnull align 8 dereferenceable(120) %_read_options, i64 120, i1 false)
  %table_filter.i = getelementptr inbounds i8, ptr %read_options, i64 120
  %_M_manager.i.i.i = getelementptr inbounds i8, ptr %read_options, i64 136
  %_M_manager.i.i.i.i = getelementptr inbounds i8, ptr %_read_options, i64 136
  call void @llvm.memset.p0.i64(ptr noundef nonnull align 8 dereferenceable(32) %table_filter.i, i8 0, i64 32, i1 false)
  %1 = load ptr, ptr %_M_manager.i.i.i.i, align 8
  %tobool.not.i.i.not.i.i = icmp eq ptr %1, null
  br i1 %tobool.not.i.i.not.i.i, label %_ZN7rocksdb11ReadOptionsC2ERKS0_.exit, label %if.then.i.i

if.then.i.i:                                      ; preds = %if.end
  %table_filter3.i = getelementptr inbounds i8, ptr %_read_options, i64 120
  %call3.i.i = invoke noundef zeroext i1 %1(ptr noundef nonnull align 8 dereferenceable(16) %table_filter.i, ptr noundef nonnull align 8 dereferenceable(16) %table_filter3.i, i32 noundef 2)
          to label %invoke.cont.i.i unwind label %lpad.i.i

invoke.cont.i.i:                                  ; preds = %if.then.i.i
  %2 = load <2 x ptr>, ptr %_M_manager.i.i.i.i, align 8
  store <2 x ptr> %2, ptr %_M_manager.i.i.i, align 8
  br label %_ZN7rocksdb11ReadOptionsC2ERKS0_.exit

lpad.i.i:                                         ; preds = %if.then.i.i
  %3 = landingpad { ptr, i32 }
          cleanup
  %4 = load ptr, ptr %_M_manager.i.i.i, align 8
  %tobool.not.i.i.i = icmp eq ptr %4, null
  br i1 %tobool.not.i.i.i, label %common.resume, label %if.then.i.i.i

if.then.i.i.i:                                    ; preds = %lpad.i.i
  %call.i.i.i = invoke noundef zeroext i1 %4(ptr noundef nonnull align 8 dereferenceable(16) %table_filter.i, ptr noundef nonnull align 8 dereferenceable(16) %table_filter.i, i32 noundef 3)
          to label %common.resume unwind label %terminate.lpad.i.i.i

terminate.lpad.i.i.i:                             ; preds = %if.then.i.i.i
  %5 = landingpad { ptr, i32 }
          catch ptr null
  %6 = extractvalue { ptr, i32 } %5, 0
  call void @__clang_call_terminate(ptr %6) #25
  unreachable

common.resume:                                    ; preds = %if.then.i.i.i12, %lpad, %lpad.i.i, %if.then.i.i.i
  %common.resume.op = phi { ptr, i32 } [ %3, %if.then.i.i.i ], [ %3, %lpad.i.i ], [ %11, %lpad ], [ %11, %if.then.i.i.i12 ]
  resume { ptr, i32 } %common.resume.op

_ZN7rocksdb11ReadOptionsC2ERKS0_.exit:            ; preds = %if.end, %invoke.cont.i.i
  %auto_readahead_size.i = getelementptr inbounds i8, ptr %read_options, i64 152
  %auto_readahead_size4.i = getelementptr inbounds i8, ptr %_read_options, i64 152
  %7 = load i16, ptr %auto_readahead_size4.i, align 8
  store i16 %7, ptr %auto_readahead_size.i, align 8
  %.mask = and i16 %7, -256
  %cmp6 = icmp eq i16 %.mask, 2560
  br i1 %cmp6, label %if.then7, label %if.end9

if.then7:                                         ; preds = %_ZN7rocksdb11ReadOptionsC2ERKS0_.exit
  %io_activity5 = getelementptr inbounds i8, ptr %read_options, i64 153
  store i8 3, ptr %io_activity5, align 1
  br label %if.end9

if.end9:                                          ; preds = %if.then7, %_ZN7rocksdb11ReadOptionsC2ERKS0_.exit
  invoke void @_ZN7rocksdb7blob_db10BlobDBImpl7GetImplERKNS_11ReadOptionsEPNS_18ColumnFamilyHandleERKNS_5SliceEPNS_13PinnableSliceEPm(ptr sret(%"class.rocksdb::Status") align 8 %agg.result, ptr noundef nonnull align 8 dereferenceable(2448) %this, ptr noundef nonnull align 8 dereferenceable(154) %read_options, ptr noundef %column_family, ptr noundef nonnull align 8 dereferenceable(16) %key, ptr noundef %value, ptr noundef null)
          to label %invoke.cont unwind label %lpad

invoke.cont:                                      ; preds = %if.end9
  %8 = load ptr, ptr %_M_manager.i.i.i, align 8
  %tobool.not.i.i.i5 = icmp eq ptr %8, null
  br i1 %tobool.not.i.i.i5, label %return, label %if.then.i.i.i6

if.then.i.i.i6:                                   ; preds = %invoke.cont
  %call.i.i.i8 = invoke noundef zeroext i1 %8(ptr noundef nonnull align 8 dereferenceable(16) %table_filter.i, ptr noundef nonnull align 8 dereferenceable(16) %table_filter.i, i32 noundef 3)
          to label %return unwind label %terminate.lpad.i.i.i9

terminate.lpad.i.i.i9:                            ; preds = %if.then.i.i.i6
  %9 = landingpad { ptr, i32 }
          catch ptr null
  %10 = extractvalue { ptr, i32 } %9, 0
  call void @__clang_call_terminate(ptr %10) #25
  unreachable

lpad:                                             ; preds = %if.end9
  %11 = landingpad { ptr, i32 }
          cleanup
  %12 = load ptr, ptr %_M_manager.i.i.i, align 8
  %tobool.not.i.i.i11 = icmp eq ptr %12, null
  br i1 %tobool.not.i.i.i11, label %common.resume, label %if.then.i.i.i12

if.then.i.i.i12:                                  ; preds = %lpad
  %call.i.i.i14 = invoke noundef zeroext i1 %12(ptr noundef nonnull align 8 dereferenceable(16) %table_filter.i, ptr noundef nonnull align 8 dereferenceable(16) %table_filter.i, i32 noundef 3)
          to label %common.resume unwind label %terminate.lpad.i.i.i15

terminate.lpad.i.i.i15:                           ; preds = %if.then.i.i.i12
  %13 = landingpad { ptr, i32 }
          catch ptr null
  %14 = extractvalue { ptr, i32 } %13, 0
  call void @__clang_call_terminate(ptr %14) #25
  unreachable

return:                                           ; preds = %if.then.i.i.i6, %invoke.cont, %if.then
  ret void
}